target datalayout = "e-m:e-p270:32:32-p271:32:32-p272:64:64-i64:64-i128:128-f80:128-n8:16:32:64-S128"
target triple = "x86_64-pc-linux-gnu"

%struct.z_stream_s = type { ptr, i32, i64, ptr, i32, i64, ptr, ptr, ptr, ptr, ptr, i32, i64, i64 }

@.str.48 = private unnamed_addr constant [43 x i8] c"cli_egg_deflate_decompress: Invalid args!\0A\00", align 1
@.str.49 = private unnamed_addr constant [76 x i8] c"cli_egg_deflate_decompress: cannot allocate memory for decompressed output\0A\00", align 1
@.str.50 = private unnamed_addr constant [7 x i8] c"1.2.11\00", align 1
@.str.51 = private unnamed_addr constant [48 x i8] c"cli_egg_deflate_decompress: inflateInit failed\0A\00", align 1
@.str.52 = private unnamed_addr constant [55 x i8] c"cli_egg_deflate_decompress: failed to decompress data\0A\00", align 1
@.str.53 = private unnamed_addr constant [78 x i8] c"cli_egg_deflate_decompress: cannot reallocate memory for decompressed output\0A\00", align 1
@.str.54 = private unnamed_addr constant [58 x i8] c"cli_egg_deflate_decompress: Z_OK on stream decompression\0A\00", align 1
@.str.55 = private unnamed_addr constant [95 x i8] c"cli_egg_deflate_decompress: decompressed %lu bytes from %lu total bytes (%lu bytes remaining)\0A\00", align 1
@.str.56 = private unnamed_addr constant [75 x i8] c"cli_egg_deflate_decompress: after decompressing %lu bytes, got error \22%s\22\0A\00", align 1
@.str.57 = private unnamed_addr constant [73 x i8] c"cli_egg_deflate_decompress: after decompressing %lu bytes, got error %d\0A\00", align 1
@.str.58 = private unnamed_addr constant [57 x i8] c"cli_egg_deflate_decompress: no bytes were decompressed.\0A\00", align 1

; Function Attrs: nounwind uwtable
define i32 @cli_egg_deflate_decompress(ptr noundef %0, i64 noundef %1, ptr noundef %2, ptr noundef %3) #0 {
  %5 = alloca ptr, align 8
  %6 = alloca i64, align 8
  %7 = alloca ptr, align 8
  %8 = alloca ptr, align 8
  %9 = alloca i32, align 4
  %10 = alloca ptr, align 8
  %11 = alloca i32, align 4
  %12 = alloca i32, align 4
  %13 = alloca %struct.z_stream_s, align 8
  %14 = alloca i32, align 4
  %15 = alloca i32, align 4
  %16 = alloca ptr, align 8
  store ptr %0, ptr %5, align 8
  store i64 %1, ptr %6, align 8
  store ptr %2, ptr %7, align 8
  store ptr %3, ptr %8, align 8
  store i32 27, ptr %9, align 4
  store ptr null, ptr %10, align 8
  store i32 0, ptr %11, align 4
  store i32 0, ptr %12, align 4
  store i32 0, ptr %14, align 4
  %17 = load ptr, ptr %5, align 8
  %18 = icmp eq ptr null, %17
  br i1 %18, label %28, label %19

19:                                               ; preds = %4
  %20 = load i64, ptr %6, align 8
  %21 = icmp eq i64 %20, 0
  br i1 %21, label %28, label %22

22:                                               ; preds = %19
  %23 = load ptr, ptr %7, align 8
  %24 = icmp eq ptr null, %23
  br i1 %24, label %28, label %25

25:                                               ; preds = %22
  %26 = load ptr, ptr %8, align 8
  %27 = icmp eq ptr null, %26
  br i1 %27, label %28, label %29

28:                                               ; preds = %25, %22, %19, %4
  call void (ptr, ...) @cli_errmsg(ptr noundef @.str.48)
  store i32 3, ptr %9, align 4
  br label %138

29:                                               ; preds = %25
  %30 = load ptr, ptr %7, align 8
  store ptr null, ptr %30, align 8
  %31 = load ptr, ptr %8, align 8
  store i64 0, ptr %31, align 8
  %32 = call noalias ptr @calloc(i64 noundef 8192, i64 noundef 1) #6
  store ptr %32, ptr %10, align 8
  %33 = icmp ne ptr %32, null
  br i1 %33, label %35, label %34

34:                                               ; preds = %29
  call void (ptr, ...) @cli_errmsg(ptr noundef @.str.49)
  store i32 20, ptr %9, align 4
  br label %138

35:                                               ; preds = %29
  store i32 8192, ptr %12, align 4
  call void @llvm.memset.p0.i64(ptr align 8 %13, i8 0, i64 112, i1 false)
  %36 = load ptr, ptr %5, align 8
  %37 = getelementptr inbounds %struct.z_stream_s, ptr %13, i32 0, i32 0
  store ptr %36, ptr %37, align 8
  %38 = load i64, ptr %6, align 8
  %39 = trunc i64 %38 to i32
  %40 = getelementptr inbounds %struct.z_stream_s, ptr %13, i32 0, i32 1
  store i32 %39, ptr %40, align 8
  %41 = load ptr, ptr %10, align 8
  %42 = getelementptr inbounds %struct.z_stream_s, ptr %13, i32 0, i32 3
  store ptr %41, ptr %42, align 8
  %43 = getelementptr inbounds %struct.z_stream_s, ptr %13, i32 0, i32 4
  store i32 8192, ptr %43, align 8
  %44 = call i32 @inflateInit2_(ptr noundef %13, i32 noundef -15, ptr noundef @.str.50, i32 noundef 112)
  store i32 %44, ptr %15, align 4
  %45 = load i32, ptr %15, align 4
  %46 = icmp ne i32 %45, 0
  br i1 %46, label %47, label %48

47:                                               ; preds = %35
  call void (ptr, ...) @cli_warnmsg(ptr noundef @.str.51)
  store i32 20, ptr %9, align 4
  br label %138

48:                                               ; preds = %35
  store i32 1, ptr %14, align 4
  %49 = call i32 @inflate(ptr noundef %13, i32 noundef 0)
  store i32 %49, ptr %15, align 4
  %50 = load i32, ptr %15, align 4
  %51 = icmp ne i32 %50, 0
  br i1 %51, label %52, label %57

52:                                               ; preds = %48
  %53 = getelementptr inbounds %struct.z_stream_s, ptr %13, i32 0, i32 4
  %54 = load i32, ptr %53, align 8
  %55 = icmp eq i32 %54, 8192
  br i1 %55, label %56, label %57

56:                                               ; preds = %52
  call void (ptr, ...) @cli_errmsg(ptr noundef @.str.52)
  store i32 27, ptr %9, align 4
  br label %138

57:                                               ; preds = %52, %48
  br label %58

58:                                               ; preds = %96, %57
  %59 = load i32, ptr %15, align 4
  %60 = icmp eq i32 %59, 0
  br i1 %60, label %61, label %65

61:                                               ; preds = %58
  %62 = getelementptr inbounds %struct.z_stream_s, ptr %13, i32 0, i32 1
  %63 = load i32, ptr %62, align 8
  %64 = icmp ne i32 %63, 0
  br label %65

65:                                               ; preds = %61, %58
  %66 = phi i1 [ false, %58 ], [ %64, %61 ]
  br i1 %66, label %67, label %98

67:                                               ; preds = %65
  %68 = getelementptr inbounds %struct.z_stream_s, ptr %13, i32 0, i32 4
  %69 = load i32, ptr %68, align 8
  %70 = icmp eq i32 %69, 0
  br i1 %70, label %71, label %96

71:                                               ; preds = %67
  br label %72

72:                                               ; preds = %71
  %73 = load ptr, ptr %10, align 8
  %74 = load i32, ptr %12, align 4
  %75 = add i32 %74, 8192
  %76 = zext i32 %75 to i64
  %77 = call ptr @cli_safer_realloc(ptr noundef %73, i64 noundef %76)
  store ptr %77, ptr %16, align 8
  %78 = load ptr, ptr %16, align 8
  %79 = icmp eq ptr null, %78
  br i1 %79, label %80, label %83

80:                                               ; preds = %72
  br label %81

81:                                               ; preds = %80
  call void (ptr, ...) @cli_errmsg(ptr noundef @.str.53)
  store i32 20, ptr %9, align 4
  br label %82

82:                                               ; preds = %81
  br label %138

83:                                               ; preds = %72
  %84 = load ptr, ptr %16, align 8
  store ptr %84, ptr %10, align 8
  br label %85

85:                                               ; preds = %83
  %86 = load ptr, ptr %10, align 8
  %87 = load i32, ptr %12, align 4
  %88 = zext i32 %87 to i64
  %89 = getelementptr inbounds i8, ptr %86, i64 %88
  %90 = getelementptr inbounds %struct.z_stream_s, ptr %13, i32 0, i32 3
  store ptr %89, ptr %90, align 8
  %91 = getelementptr inbounds %struct.z_stream_s, ptr %13, i32 0, i32 4
  store i32 8192, ptr %91, align 8
  %92 = load i32, ptr %11, align 4
  %93 = add i32 %92, 8192
  store i32 %93, ptr %11, align 4
  %94 = load i32, ptr %12, align 4
  %95 = add i32 %94, 8192
  store i32 %95, ptr %12, align 4
  br label %96

96:                                               ; preds = %85, %67
  %97 = call i32 @inflate(ptr noundef %13, i32 noundef 0)
  store i32 %97, ptr %15, align 4
  br label %58

98:                                               ; preds = %65
  %99 = getelementptr inbounds %struct.z_stream_s, ptr %13, i32 0, i32 4
  %100 = load i32, ptr %99, align 8
  %101 = sub i32 8192, %100
  %102 = load i32, ptr %11, align 4
  %103 = add i32 %102, %101
  store i32 %103, ptr %11, align 4
  %104 = load i32, ptr %15, align 4
  switch i32 %104, label %114 [
    i32 0, label %105
    i32 1, label %106
    i32 -2, label %113
    i32 2, label %113
    i32 -3, label %113
    i32 -4, label %113
  ]

105:                                              ; preds = %98
  call void (ptr, ...) @cli_dbgmsg(ptr noundef @.str.54)
  br label %106

106:                                              ; preds = %105, %98
  %107 = load i32, ptr %11, align 4
  %108 = zext i32 %107 to i64
  %109 = load i64, ptr %6, align 8
  %110 = getelementptr inbounds %struct.z_stream_s, ptr %13, i32 0, i32 1
  %111 = load i32, ptr %110, align 8
  %112 = zext i32 %111 to i64
  call void (ptr, ...) @cli_dbgmsg(ptr noundef @.str.55, i64 noundef %108, i64 noundef %109, i64 noundef %112)
  br label %132

113:                                              ; preds = %98, %98, %98, %98
  br label %114

114:                                              ; preds = %113, %98
  %115 = getelementptr inbounds %struct.z_stream_s, ptr %13, i32 0, i32 6
  %116 = load ptr, ptr %115, align 8
  %117 = icmp ne ptr %116, null
  br i1 %117, label %118, label %123

118:                                              ; preds = %114
  %119 = load i32, ptr %11, align 4
  %120 = zext i32 %119 to i64
  %121 = getelementptr inbounds %struct.z_stream_s, ptr %13, i32 0, i32 6
  %122 = load ptr, ptr %121, align 8
  call void (ptr, ...) @cli_dbgmsg(ptr noundef @.str.56, i64 noundef %120, ptr noundef %122)
  br label %127

123:                                              ; preds = %114
  %124 = load i32, ptr %11, align 4
  %125 = zext i32 %124 to i64
  %126 = load i32, ptr %15, align 4
  call void (ptr, ...) @cli_dbgmsg(ptr noundef @.str.57, i64 noundef %125, i32 noundef %126)
  br label %127

127:                                              ; preds = %123, %118
  %128 = load i32, ptr %11, align 4
  %129 = icmp eq i32 %128, 0
  br i1 %129, label %130, label %131

130:                                              ; preds = %127
  call void (ptr, ...) @cli_dbgmsg(ptr noundef @.str.58)
  store i32 27, ptr %9, align 4
  br label %131

131:                                              ; preds = %130, %127
  br label %132

132:                                              ; preds = %131, %106
  %133 = load ptr, ptr %10, align 8
  %134 = load ptr, ptr %7, align 8
  store ptr %133, ptr %134, align 8
  store ptr null, ptr %10, align 8
  %135 = load i32, ptr %11, align 4
  %136 = zext i32 %135 to i64
  %137 = load ptr, ptr %8, align 8
  store i64 %136, ptr %137, align 8
  store i32 0, ptr %9, align 4
  br label %138

138:                                              ; preds = %132, %82, %56, %47, %34, %28
  %139 = load i32, ptr %14, align 4
  %140 = icmp ne i32 %139, 0
  br i1 %140, label %141, label %143

141:                                              ; preds = %138
  %142 = call i32 @inflateEnd(ptr noundef %13)
  br label %143

143:                                              ; preds = %141, %138
  %144 = load ptr, ptr %10, align 8
  %145 = icmp ne ptr null, %144
  br i1 %145, label %146, label %148

146:                                              ; preds = %143
  %147 = load ptr, ptr %10, align 8
  call void @free(ptr noundef %147) #7
  br label %148

148:                                              ; preds = %146, %143
  %149 = load i32, ptr %9, align 4
  ret i32 %149
}