; Function Attrs: nounwind uwtable
define noundef i32 @cli_egg_deflate_decompress(ptr noundef %0, i64 noundef %1, ptr noundef writeonly %2, ptr noundef writeonly %3) local_unnamed_addr #1 {
  %5 = alloca %struct.z_stream_s, align 8
  %6 = icmp eq ptr %0, null
  %7 = icmp eq i64 %1, 0
  %or.cond = or i1 %6, %7
  %8 = icmp eq ptr %2, null
  %or.cond3 = or i1 %or.cond, %8
  %9 = icmp eq ptr %3, null
  %or.cond5 = or i1 %or.cond3, %9
  br i1 %or.cond5, label %10, label %11

10:                                               ; preds = %4
  tail call void (ptr, ...) @cli_errmsg(ptr noundef nonnull @.str.48) #11
  br label %.thread.thread

11:                                               ; preds = %4
  store ptr null, ptr %2, align 8
  store i64 0, ptr %3, align 8
  %12 = tail call noalias dereferenceable_or_null(8192) ptr @calloc(i64 noundef 8192, i64 noundef 1) #12
  %.not = icmp eq ptr %12, null
  br i1 %.not, label %13, label %14

13:                                               ; preds = %11
  tail call void (ptr, ...) @cli_errmsg(ptr noundef nonnull @.str.49) #11
  br label %.thread.thread

14:                                               ; preds = %11
  %15 = getelementptr inbounds i8, ptr %5, i64 8
  call void @llvm.memset.p0.i64(ptr noundef nonnull align 8 dereferenceable(112) %15, i8 0, i64 104, i1 false)
  store ptr %0, ptr %5, align 8
  %16 = trunc i64 %1 to i32
  %17 = getelementptr inbounds i8, ptr %5, i64 8
  store i32 %16, ptr %17, align 8
  %18 = getelementptr inbounds i8, ptr %5, i64 24
  store ptr %12, ptr %18, align 8
  %19 = getelementptr inbounds i8, ptr %5, i64 32
  store i32 8192, ptr %19, align 8
  %20 = call i32 @inflateInit2_(ptr noundef nonnull %5, i32 noundef -15, ptr noundef nonnull @.str.50, i32 noundef 112) #11
  %.not58 = icmp eq i32 %20, 0
  br i1 %.not58, label %21, label %.thread.thread71

.thread.thread71:                                 ; preds = %14
  call void (ptr, ...) @cli_warnmsg(ptr noundef nonnull @.str.51) #11
  br label %68

21:                                               ; preds = %14
  %22 = call i32 @inflate(ptr noundef nonnull %5, i32 noundef 0) #11
  %23 = icmp ne i32 %22, 0
  %24 = load i32, ptr %19, align 8
  %25 = icmp eq i32 %24, 8192
  %or.cond8 = select i1 %23, i1 %25, i1 false
  br i1 %or.cond8, label %.thread.thread81, label %.preheader

.preheader:                                       ; preds = %21
  %26 = icmp eq i32 %22, 0
  %27 = load i32, ptr %17, align 8
  %28 = icmp ne i32 %27, 0
  %29 = select i1 %26, i1 %28, i1 false
  br i1 %29, label %.lr.ph, label %._crit_edge

.thread.thread81:                                 ; preds = %21
  call void (ptr, ...) @cli_errmsg(ptr noundef nonnull @.str.52) #11
  %30 = call i32 @inflateEnd(ptr noundef nonnull %5) #11
  br label %68

.lr.ph:                                           ; preds = %.preheader, %42
  %.04590 = phi i32 [ %.1, %42 ], [ 8192, %.preheader ]
  %.04689 = phi i32 [ %.147, %42 ], [ 0, %.preheader ]
  %.04888 = phi ptr [ %.149, %42 ], [ %12, %.preheader ]
  %31 = load i32, ptr %19, align 8
  %32 = icmp eq i32 %31, 0
  br i1 %32, label %33, label %42

33:                                               ; preds = %.lr.ph
  %34 = add i32 %.04590, 8192
  %35 = zext i32 %34 to i64
  %36 = call ptr @cli_safer_realloc(ptr noundef %.04888, i64 noundef %35) #11
  %37 = icmp eq ptr %36, null
  br i1 %37, label %.thread, label %38

38:                                               ; preds = %33
  %39 = zext i32 %.04590 to i64
  %40 = getelementptr inbounds i8, ptr %36, i64 %39
  store ptr %40, ptr %18, align 8
  store i32 8192, ptr %19, align 8
  %41 = add i32 %.04689, 8192
  br label %42

42:                                               ; preds = %38, %.lr.ph
  %.149 = phi ptr [ %36, %38 ], [ %.04888, %.lr.ph ]
  %.147 = phi i32 [ %41, %38 ], [ %.04689, %.lr.ph ]
  %.1 = phi i32 [ %34, %38 ], [ %.04590, %.lr.ph ]
  %43 = call i32 @inflate(ptr noundef nonnull %5, i32 noundef 0) #11
  %44 = icmp eq i32 %43, 0
  %45 = load i32, ptr %17, align 8
  %46 = icmp ne i32 %45, 0
  %47 = select i1 %44, i1 %46, i1 false
  br i1 %47, label %.lr.ph, label %._crit_edge.loopexit

._crit_edge.loopexit:                             ; preds = %42
  %.pre = load i32, ptr %19, align 8
  br label %._crit_edge

._crit_edge:                                      ; preds = %._crit_edge.loopexit, %.preheader
  %48 = phi i32 [ %27, %.preheader ], [ %45, %._crit_edge.loopexit ]
  %49 = phi i32 [ %24, %.preheader ], [ %.pre, %._crit_edge.loopexit ]
  %.048.lcssa = phi ptr [ %12, %.preheader ], [ %.149, %._crit_edge.loopexit ]
  %.046.lcssa = phi i32 [ 0, %.preheader ], [ %.147, %._crit_edge.loopexit ]
  %.043.lcssa = phi i32 [ %22, %.preheader ], [ %43, %._crit_edge.loopexit ]
  %reass.sub = sub i32 %.046.lcssa, %49
  %50 = add i32 %reass.sub, 8192
  switch i32 %.043.lcssa, label %56 [
    i32 0, label %51
    i32 1, label %52
  ]

51:                                               ; preds = %._crit_edge
  call void (ptr, ...) @cli_dbgmsg(ptr noundef nonnull @.str.54) #11
  %.pre94 = load i32, ptr %17, align 8
  br label %52

52:                                               ; preds = %51, %._crit_edge
  %53 = phi i32 [ %.pre94, %51 ], [ %48, %._crit_edge ]
  %54 = zext i32 %50 to i64
  %55 = zext i32 %53 to i64
  call void (ptr, ...) @cli_dbgmsg(ptr noundef nonnull @.str.55, i64 noundef %54, i64 noundef %1, i64 noundef %55) #11
  br label %.thread.thread77

56:                                               ; preds = %._crit_edge
  %57 = getelementptr inbounds i8, ptr %5, i64 48
  %58 = load ptr, ptr %57, align 8
  %.not59 = icmp eq ptr %58, null
  %59 = zext i32 %50 to i64
  br i1 %.not59, label %61, label %60

60:                                               ; preds = %56
  call void (ptr, ...) @cli_dbgmsg(ptr noundef nonnull @.str.56, i64 noundef %59, ptr noundef nonnull %58) #11
  br label %62

61:                                               ; preds = %56
  call void (ptr, ...) @cli_dbgmsg(ptr noundef nonnull @.str.57, i64 noundef %59, i32 noundef %.043.lcssa) #11
  br label %62

62:                                               ; preds = %61, %60
  %63 = icmp eq i32 %50, 0
  br i1 %63, label %64, label %.thread.thread77

64:                                               ; preds = %62
  call void (ptr, ...) @cli_dbgmsg(ptr noundef nonnull @.str.58) #11
  br label %.thread.thread77

.thread.thread77:                                 ; preds = %52, %64, %62
  store ptr %.048.lcssa, ptr %2, align 8
  %65 = zext i32 %50 to i64
  store i64 %65, ptr %3, align 8
  %66 = call i32 @inflateEnd(ptr noundef nonnull %5) #11
  br label %.thread.thread

.thread:                                          ; preds = %33
  call void (ptr, ...) @cli_errmsg(ptr noundef nonnull @.str.53) #11
  %67 = call i32 @inflateEnd(ptr noundef nonnull %5) #11
  %.not61 = icmp eq ptr %.04888, null
  br i1 %.not61, label %.thread.thread, label %68

68:                                               ; preds = %.thread.thread81, %.thread.thread71, %.thread
  %.26576 = phi ptr [ %12, %.thread.thread71 ], [ %.04888, %.thread ], [ %12, %.thread.thread81 ]
  %.06675 = phi i32 [ 20, %.thread.thread71 ], [ 20, %.thread ], [ 27, %.thread.thread81 ]
  call void @free(ptr noundef nonnull %.26576) #11
  br label %.thread.thread

.thread.thread:                                   ; preds = %10, %13, %.thread.thread77, %68, %.thread
  %.06670 = phi i32 [ %.06675, %68 ], [ 20, %.thread ], [ 0, %.thread.thread77 ], [ 3, %10 ], [ 20, %13 ]
  ret i32 %.06670
}